; Function Attrs: mustprogress nofree norecurse nosync nounwind willreturn memory(read, argmem: readwrite, inaccessiblemem: none) uwtable
define void @ossl_quic_stream_iter_next(ptr noundef captures(none) %0) local_unnamed_addr #9 {
  %2 = getelementptr inbounds nuw i8, ptr %0, i64 16
  %3 = load ptr, ptr %2, align 8, !tbaa !55
  %4 = icmp eq ptr %3, null
  br i1 %4, label %17, label %5

5:                                                ; preds = %1
  %6 = load ptr, ptr %0, align 8, !tbaa !51
  %7 = getelementptr inbounds nuw i8, ptr %6, i64 8
  %8 = getelementptr i8, ptr %3, i64 8
  %.val = load ptr, ptr %8, align 8, !tbaa !38
  %9 = icmp eq ptr %.val, %7
  br i1 %9, label %10, label %list_next.exit

10:                                               ; preds = %5
  %11 = getelementptr inbounds nuw i8, ptr %.val, i64 8
  %12 = load ptr, ptr %11, align 8, !tbaa !38
  br label %list_next.exit

list_next.exit:                                   ; preds = %5, %10
  %.08.i = phi ptr [ %12, %10 ], [ %.val, %5 ]
  %13 = icmp eq ptr %.08.i, %7
  %.0.i = select i1 %13, ptr null, ptr %.08.i
  %14 = getelementptr inbounds nuw i8, ptr %0, i64 8
  %15 = load ptr, ptr %14, align 8, !tbaa !54
  %16 = icmp eq ptr %.0.i, %15
  %spec.store.select = select i1 %16, ptr null, ptr %.0.i
  store ptr %spec.store.select, ptr %2, align 8
  br label %17

17:                                               ; preds = %list_next.exit, %1
  ret void
}